; Function Attrs: mustprogress uwtable
define hidden void @_ZN6Assimp3ASE6Parser23ParseLV4MeshFloatTripleEPf(ptr noundef nonnull align 8 captures(none) dereferenceable(188) %0, ptr noundef %1) local_unnamed_addr #1 align 2 {
  %3 = alloca [2048 x i8], align 16
  %4 = getelementptr inbounds nuw i8, ptr %0, i64 8
  %5 = getelementptr inbounds nuw i8, ptr %0, i64 160
  br label %7

6:                                                ; preds = %_ZN6Assimp3ASE6Parser17ParseLV4MeshFloatERf.exit
  ret void

7:                                                ; preds = %2, %_ZN6Assimp3ASE6Parser17ParseLV4MeshFloatERf.exit
  %indvars.iv = phi i64 [ 0, %2 ], [ %indvars.iv.next, %_ZN6Assimp3ASE6Parser17ParseLV4MeshFloatERf.exit ]
  %8 = getelementptr inbounds nuw float, ptr %1, i64 %indvars.iv
  %9 = load ptr, ptr %4, align 8
  %10 = load ptr, ptr %0, align 8
  %11 = ptrtoint ptr %10 to i64
  %12 = ptrtoint ptr %9 to i64
  %13 = sub i64 %12, %11
  %scevgep.i.i.i = getelementptr i8, ptr %10, i64 %13
  br label %14

14:                                               ; preds = %17, %7
  %.0.i.i.i = phi ptr [ %10, %7 ], [ %18, %17 ]
  %15 = load i8, ptr %.0.i.i.i, align 1
  switch i8 %15, label %.critedge.i.i.i [
    i8 32, label %16
    i8 9, label %16
  ]

16:                                               ; preds = %14, %14
  %.not.i.i.i = icmp eq ptr %.0.i.i.i, %9
  br i1 %.not.i.i.i, label %.critedge.i.i.i, label %17

17:                                               ; preds = %16
  %18 = getelementptr inbounds nuw i8, ptr %.0.i.i.i, i64 1
  br label %14, !llvm.loop !34

.critedge.i.i.i:                                  ; preds = %16, %14
  %.0.lcssa.i.i.i = phi ptr [ %.0.i.i.i, %14 ], [ %scevgep.i.i.i, %16 ]
  store ptr %.0.lcssa.i.i.i, ptr %0, align 8
  %19 = load i8, ptr %.0.lcssa.i.i.i, align 1
  switch i8 %19, label %25 [
    i8 13, label %_ZN6Assimp10SkipSpacesIcEEbPPKT_S3_.exit.i
    i8 10, label %_ZN6Assimp10SkipSpacesIcEEbPPKT_S3_.exit.i
    i8 0, label %_ZN6Assimp10SkipSpacesIcEEbPPKT_S3_.exit.i
    i8 12, label %_ZN6Assimp10SkipSpacesIcEEbPPKT_S3_.exit.i
  ]

_ZN6Assimp10SkipSpacesIcEEbPPKT_S3_.exit.i:       ; preds = %.critedge.i.i.i, %.critedge.i.i.i, %.critedge.i.i.i, %.critedge.i.i.i
  call void @llvm.lifetime.start.p0(i64 2048, ptr nonnull %3) #28
  %20 = load i32, ptr %5, align 8
  %21 = call i32 (ptr, i64, ptr, ...) @snprintf(ptr noundef nonnull dereferenceable(1) %3, i64 noundef 2048, ptr noundef nonnull @.str, i32 noundef %20, ptr noundef nonnull @.str.206) #28
  %22 = call noundef ptr @_ZN6Assimp13DefaultLogger3getEv()
  call void @_ZN6Assimp6Logger4warnIJRA2048_cEEEvDpOT_(ptr noundef nonnull align 8 dereferenceable(12) %22, ptr noundef nonnull align 1 dereferenceable(2048) %3)
  call void @llvm.lifetime.end.p0(i64 2048, ptr nonnull %3) #28
  store float 0.000000e+00, ptr %8, align 4
  %23 = load i32, ptr %5, align 8
  %24 = add i32 %23, 1
  store i32 %24, ptr %5, align 8
  br label %_ZN6Assimp3ASE6Parser17ParseLV4MeshFloatERf.exit

25:                                               ; preds = %.critedge.i.i.i
  %26 = call noundef ptr @_ZN6Assimp17fast_atoreal_moveIf17DeadlyImportErrorEEPKcS3_RT_b(ptr noundef nonnull %.0.lcssa.i.i.i, ptr noundef nonnull align 4 dereferenceable(4) %8, i1 noundef zeroext true)
  store ptr %26, ptr %0, align 8
  br label %_ZN6Assimp3ASE6Parser17ParseLV4MeshFloatERf.exit

_ZN6Assimp3ASE6Parser17ParseLV4MeshFloatERf.exit: ; preds = %_ZN6Assimp10SkipSpacesIcEEbPPKT_S3_.exit.i, %25
  %indvars.iv.next = add nuw nsw i64 %indvars.iv, 1
  %exitcond.not = icmp eq i64 %indvars.iv.next, 3
  br i1 %exitcond.not, label %6, label %7, !llvm.loop !68
}